(dp1
S'output'
p2
S'missing "pass" in view'
p3
sS'layer'
p4
S'ParserContainer'
p5
sS'code'
p6
S'response.write(\'<!DOCTYPE html>\\n<!--[if (gt IE 9)|!(IE)]><!--> <html class="no-js" lang="\', escape=False)\nresponse.write(T.accepted_language or \'en\')\nresponse.write(\'"> <!--<![endif]-->\\n  <head>\\n    <meta charset="utf-8">\\n    <!-- www.phpied.com/conditional-comments-block-downloads/ -->\\n    <!-- Always force latest IE rendering engine\\n         (even in intranet) & Chrome Frame\\n         Remove this if you use the .htaccess -->\\n    <meta http-equiv="X-UA-Compatible" content="IE=edge\', escape=False)\nresponse.write(not request.is_local and \',chrome=1\' or \'\')\nresponse.write(\'">\\n    <!--  Mobile Viewport Fix\\n          j.mp/mobileviewport & davidbcalhoun.com/2010/viewport-metatag\\n          device-width: Occupy full width of the screen in its current orientation\\n          initial-scale = 1.0 retains dimensions instead of zooming out if page height > device height\\n          user-scalable = yes allows the user to zoom in -->\\n    <meta name="viewport" content="width=device-width, initial-scale=1.0">\\n    <title>\', escape=False)\nresponse.write(response.title or request.application)\nresponse.write(\'</title>\\n    <!-- http://dev.w3.org/html5/markup/meta.name.html -->\\n    <meta name="application-name" content="\', escape=False)\nresponse.write(request.application)\nresponse.write(\'">\\n    <!-- Speaking of Google, don\\\'t forget to set your site up:\\n         http://google.com/webmasters -->\\n    <meta name="google-site-verification" content="">\\n    <!-- include stylesheets -->\\n    <link rel="stylesheet" href="https://cdnjs.cloudflare.com/ajax/libs/font-awesome/4.7.0/css/font-awesome.min.css"/>\\n    <link rel="stylesheet" href="\', escape=False)\nresponse.write(URL(\'static\',\'css/bootstrap.min.css\'))\nresponse.write(\'"/>\\n    <link rel="stylesheet" href="\', escape=False)\nresponse.write(URL(\'static\',\'css/web2py-bootstrap4.css\'))\nresponse.write(\'"/>\\n    <link rel="shortcut icon" href="\', escape=False)\nresponse.write(URL(\'static\',\'images/favicon.ico\'))\nresponse.write(\'" type="image/x-icon">\\n    <link rel="apple-touch-icon" href="\', escape=False)\nresponse.write(URL(\'static\',\'images/favicon.png\'))\nresponse.write(\'">\\n    <!-- All JavaScript at the bottom, except for Modernizr which enables\\n         HTML5 elements & feature detects -->\\n    <script src="\', escape=False)\nresponse.write(URL(\'static\',\'js/modernizr-2.8.3.min.js\'))\nresponse.write(\'"></script>\\n    <!-- Favicons -->\\n    \', escape=False)\nresponse.write(\'<script type="text/javascript"><!--\\n    // These variables are used by the web2py_ajax_init function in web2py_ajax.js (which is loaded below).\\n    \', escape=False)\nresponse.write(ASSIGNJS(\nw2p_ajax_confirm_message = T(\'Are you sure you want to delete this object?\'),\nw2p_ajax_disable_with_message = T(\'Working...\'),\nw2p_ajax_date_format = T(\'%Y-%m-%d\'),\nw2p_ajax_datetime_format = T(\'%Y-%m-%d %H:%M:%S\'),\najax_error_500 = T.M(\'An error occured, please [[reload %s]] the page\') % URL(args=request.args, vars=request.get_vars)\n))\nresponse.write(\'\\n    //--></script>\\n\', escape=False)\nresponse.files.insert(0,URL(\'static\',\'js/jquery.js\'))\nresponse.files.insert(1,URL(\'static\',\'css/calendar.css\'))\nresponse.files.insert(2,URL(\'static\',\'js/calendar.js\'))\nresponse.files.insert(3,URL(\'static\',\'js/web2py.js\'))\nresponse.include_meta()\nresponse.include_files()\nresponse.write(\'\\n\', escape=False)\nresponse.write(\' <!-- this includes jquery.js, calendar.js/.css and web2py.js -->\\n    \', escape=False)\nresponse.write(\'\\n  </head>\\n  <body>\\n    <div class="w2p_flash alert alert-dismissable">\', escape=False)\nresponse.write(response.flash or \'\')\nresponse.write(\'</div>\\n\\n\\n    <!-- Masthead ===================================== -->\\n    \', escape=False)\nresponse.write(\'\\n<div class="jumbotron jumbotron-fluid" style="background-color: #333; color:white; padding:30px;word-wrap:break-word;">\\n  <div class="container center">\\n    <h1 class="display-5">RIDECARE</h1>\\n  </div>\\n</div>\\n\', escape=False)\nresponse.write(\'\\n    <!-- Main ========================================= -->\\n    <!-- Begin page content -->\\n    <div class="container-fluid main-container">\\n      \', escape=False)\nresponse.write(\'\\n\\n\', escape=False)\nresponse.write(\'\\n\\n<div class="row">\\n  <div class="col-md-12">\\n\\n    <h2 style="font-weight:bold;">Raspberry Pi 1</h2>\\n\\n<div class="jumbotron jumbotron-fluid" style="padding:30px;word-wrap:break-word;">\\n<div class="container center">\\n<a class="btn btn-primary" href="\', escape=False)\nresponse.write(URL(\'default\',\'index\'))\nresponse.write(\'">Sensor1</a>\\n<a class="btn btn-primary" href="\', escape=False)\nresponse.write(URL(\'default\',\'index\', args=[\'bme680\']))\nresponse.write(\'">Sensor2</a>\\n</div>\\n      </div>\\n\\n<p style="float:right;font-size:12px;color:gray;">Auto-update: <span class="autoreloading">5 sec</span></p>\\n\\n<div>\\n<p><strong class="btn btn-secondary" style="background:#000000;cursor:default;">Sensor 1 API:</strong> <a href="\', escape=False)\nresponse.write(URL())\nresponse.write(\'/sds011/all/json" target="_blank" class="btn btn-secondary">/datalake/sds011/all/json</a>\\n<a href="\', escape=False)\nresponse.write(URL())\nresponse.write(\'/sds011/all/csv" target="_blank" class="btn btn-secondary">/datalake/sds011/all/csv</a>\\n\\n<a href="\', escape=False)\nresponse.write(URL())\nresponse.write(\'/sds011/last/json" target="_blank" class="btn btn-secondary">/datalake/sds011/last/json</a>\\n<a href="\', escape=False)\nresponse.write(URL())\nresponse.write(\'/sds011/last/csv" target="_blank" class="btn btn-secondary">/datalake/sds011/last/csv</a></p>\\n<br>\\n<p><strong class="btn btn-secondary" style="background:#000000;cursor:default;">Sensor 2 API:</strong> <a href="\', escape=False)\nresponse.write(URL())\nresponse.write(\'/bme680/all/json" target="_blank" class="btn btn-secondary">/datalake/bme680/all/json</a>\\n<a href="\', escape=False)\nresponse.write(URL())\nresponse.write(\'/bme680/all/csv" target="_blank" class="btn btn-secondary">/datalake/bme680/all/csv</a>\\n    \\n<a href="\', escape=False)\nresponse.write(URL())\nresponse.write(\'/bme680/last/json" target="_blank" class="btn btn-secondary">/datalake/bme680/last/json</a>\\n<a href="\', escape=False)\nresponse.write(URL())\nresponse.write(\'/bme680/last/csv" target="_blank" class="btn btn-secondary">/datalake/bme680/last/csv</a></p>\\n</div>\\n\\n<br><br>\\n\\n      \', escape=False)\nif sensor == "bme680":\n    response.write(\'\\n      \', escape=False)\n    response.write(LOAD(\'default\', \'sensor2.load\', ajax=True))\n    response.write(\'\\n      \', escape=False)\n    if sensor == "sds011":\n        response.write(\'\\n      \', escape=False)\n        response.write(LOAD(\'default\', \'sensor1.load\', ajax=True))\n        response.write(\'\\n      \', escape=False)\n    else:\n        response.write(\'\\n      \', escape=False)\n        response.write(LOAD(\'default\', \'sensors.load\', ajax=True))\n        response.write(\'\\n      \', escape=False)\n        pass\n    response.write(\'\\n\\n<script>\\nvar timmer = setInterval(timmedReload, 5000);\\n/*var clicked = false;\\n$("a").click(function(){\\n    clicked = true;\\n    alert(5);\\n    clearInterval(timmer);\\n});*/\\nfunction timmedReload() {\\n        //if ($(".web2py_table")[0]){\\n        if (clicked == false) {\\n            //clearInterval(timmer);\\n            $("div[data-w2p_remote]").get(0).reload();\\n        }\\n    }\\n</script>\\n\\n</div>\\n</div>\\n\', escape=False)\n    response.write(\'\\n      \', escape=False)\n    response.write(response.toolbar() if response.show_toolbar else \'\')\n    response.write(\'\\n    </div>\\n\\n    \', escape=False)\n    response.write(\' <!-- this is default footer -->\\n    <footer class="footer container-fluid">\\n      <div class="row">\\n        <div class="col-md-12">\\n          <div class="copyright pull-left">\', escape=False)\n    response.write(T(\'Copyright\'))\n    response.write(\' &#169; \', escape=False)\n    response.write(request.now.year)\n    response.write(\'</div>\\n          <div id="poweredBy" class="pull-right">\\n            \', escape=False)\n    response.write(T(\'Powered by\'))\n    response.write(\'\\n            <a href="http://www.web2py.com/">web2py</a>\\n          </div>\\n        </div>\\n      </div>\\n    </footer>\\n    \', escape=False)\n    response.write(\'\\n    <!-- The javascript =============================== -->\\n    <script src="\', escape=False)\n    response.write(URL(\'static\',\'js/bootstrap.bundle.min.js\'))\n    response.write(\'"></script>\\n    <script src="\', escape=False)\n    response.write(URL(\'static\',\'js/web2py-bootstrap4.js\'))\n    response.write(\'"></script>\\n    \', escape=False)\n    response.write(\'\\n    \', escape=False)\n    if response.google_analytics_id:\n        response.write(\'\\n    <!-- Analytics ==================================== -->\\n    <script src="\', escape=False)\n        response.write(URL(\'static\',\'js/analytics.min.js\'))\n        response.write(\'"></script>\\n    <script type="text/javascript">\\n      analytics.initialize({\\n      \\\'Google Analytics\\\':{trackingId:\\\'\', escape=False)\n        response.write(response.google_analytics_id)\n        response.write("\'}\\n      });\\n    </script>\\n    ", escape=False)\n        pass\n    response.write(\'\\n  </body>\\n</html>\\n\', escape=False)'
p7
sS'snapshot'
p8
(dp9
sS'traceback'
p10
S'None\n'
p11
s.