(dp1
S'output'
p2
S"<type 'exceptions.SyntaxError'> Field: unknown field type: string:list for tags"
p3
sS'layer'
p4
S'/var/www/web2py/applications/datalake/models/sensor1.py'
p5
sS'code'
p6
S'<code object <module> at 0x7f2cf6064a30, file "/var/www/web2py/applications/datalake/models/sensor1.py", line 3>'
p7
sS'snapshot'
p8
(dp9
S'exception'
p10
(dp11
S'__getslice__'
p12
S"<method-wrapper '__getslice__' of exceptions.SyntaxError object>"
p13
sS'text'
p14
S'None'
p15
sS'__str__'
p16
S"<method-wrapper '__str__' of exceptions.SyntaxError object>"
p17
sS'__reduce__'
p18
S'<built-in method __reduce__ of exceptions.SyntaxError object>'
p19
sS'__dict__'
p20
S'{}'
p21
sS'__sizeof__'
p22
S'<built-in method __sizeof__ of exceptions.SyntaxError object>'
p23
sS'message'
p24
S"'Field: unknown field type: string:list for tags'"
p25
sS'__init__'
p26
S"<method-wrapper '__init__' of exceptions.SyntaxError object>"
p27
sS'__setattr__'
p28
S"<method-wrapper '__setattr__' of exceptions.SyntaxError object>"
p29
sS'__reduce_ex__'
p30
S'<built-in method __reduce_ex__ of exceptions.SyntaxError object>'
p31
sS'__new__'
p32
S'<built-in method __new__ of type object>'
p33
sS'__format__'
p34
S'<built-in method __format__ of exceptions.SyntaxError object>'
p35
sS'__class__'
p36
S"<type 'exceptions.SyntaxError'>"
p37
sS'filename'
p38
S'None'
p39
sS'lineno'
p40
S'None'
p41
sS'msg'
p42
S"'Field: unknown field type: string:list for tags'"
p43
sS'__doc__'
p44
S"'Invalid syntax.'"
p45
sS'__getitem__'
p46
S"<method-wrapper '__getitem__' of exceptions.SyntaxError object>"
p47
sS'__setstate__'
p48
S'<built-in method __setstate__ of exceptions.SyntaxError object>'
p49
sS'__getattribute__'
p50
S"<method-wrapper '__getattribute__' of exceptions.SyntaxError object>"
p51
sS'print_file_and_line'
p52
S'None'
p53
sS'args'
p54
S"('Field: unknown field type: string:list for tags',)"
p55
sS'__subclasshook__'
p56
S'<built-in method __subclasshook__ of type object>'
p57
sS'offset'
p58
S'None'
p59
sS'__unicode__'
p60
S'<built-in method __unicode__ of exceptions.SyntaxError object>'
p61
sS'__delattr__'
p62
S"<method-wrapper '__delattr__' of exceptions.SyntaxError object>"
p63
sS'__repr__'
p64
S"<method-wrapper '__repr__' of exceptions.SyntaxError object>"
p65
sS'__hash__'
p66
S"<method-wrapper '__hash__' of exceptions.SyntaxError object>"
p67
ssS'evalue'
p68
S'Field: unknown field type: string:list for tags'
p69
sS'request'
p70
cgluon.html
XML_unpickle
p71
(S's&R\x00\x00<div><table><tr><td style="font-weight:bold;vertical-align:top;">ajax</td><td style="vertical-align:top;">:</td><td><div>True</div></td></tr><tr><td style="font-weight:bold;vertical-align:top;">application</td><td style="vertical-align:top;">:</td><td><div>datalake</div></td></tr><tr><td style="font-weight:bold;vertical-align:top;">args</td><td style="vertical-align:top;">:</td><td><div><table></table></div></td></tr><tr><td style="font-weight:bold;vertical-align:top;">cid</td><td style="vertical-align:top;">:</td><td><div>c636795679846</div></td></tr><tr><td style="font-weight:bold;vertical-align:top;">client</td><td style="vertical-align:top;">:</td><td><div>89.181.225.70</div></td></tr><tr><td style="font-weight:bold;vertical-align:top;">controller</td><td style="vertical-align:top;">:</td><td><div>default</div></td></tr><tr><td style="font-weight:bold;vertical-align:top;">cookies</td><td style="vertical-align:top;">:</td><td><div><table><tr><td style="font-weight:bold;vertical-align:top;">session_id_datalake</td><td style="vertical-align:top;">:</td><td><div>89.181.225.70-a2e981c9-02ff-45b2-9d89-834a219a2619<table><tr><td style="font-weight:bold;vertical-align:top;">comment</td><td style="vertical-align:top;">:</td><td><div></div></td></tr><tr><td style="font-weight:bold;vertical-align:top;">domain</td><td style="vertical-align:top;">:</td><td><div></div></td></tr><tr><td style="font-weight:bold;vertical-align:top;">expires</td><td style="vertical-align:top;">:</td><td><div></div></td></tr><tr><td style="font-weight:bold;vertical-align:top;">httponly</td><td style="vertical-align:top;">:</td><td><div></div></td></tr><tr><td style="font-weight:bold;vertical-align:top;">max-age</td><td style="vertical-align:top;">:</td><td><div></div></td></tr><tr><td style="font-weight:bold;vertical-align:top;">path</td><td style="vertical-align:top;">:</td><td><div></div></td></tr><tr><td style="font-weight:bold;vertical-align:top;">secure</td><td style="vertical-align:top;">:</td><td><div></div></td></tr><tr><td style="font-weight:bold;vertical-align:top;">version</td><td style="vertical-align:top;">:</td><td><div></div></td></tr></table></div></td></tr></table></div></td></tr><tr><td style="font-weight:bold;vertical-align:top;">env</td><td style="vertical-align:top;">:</td><td><div><table><tr><td style="font-weight:bold;vertical-align:top;">CONTENT_LENGTH</td><td style="vertical-align:top;">:</td><td><div></div></td></tr><tr><td style="font-weight:bold;vertical-align:top;">CONTENT_TYPE</td><td style="vertical-align:top;">:</td><td><div>application/x-www-form-urlencoded; charset=UTF-8</div></td></tr><tr><td style="font-weight:bold;vertical-align:top;">DOCUMENT_ROOT</td><td style="vertical-align:top;">:</td><td><div>/usr/share/nginx/html</div></td></tr><tr><td style="font-weight:bold;vertical-align:top;">HTTP_ACCEPT</td><td style="vertical-align:top;">:</td><td><div>*/*</div></td></tr><tr><td style="font-weight:bold;vertical-align:top;">HTTP_ACCEPT_ENCODING</td><td style="vertical-align:top;">:</td><td><div>gzip, deflate</div></td></tr><tr><td style="font-weight:bold;vertical-align:top;">HTTP_ACCEPT_LANGUAGE</td><td style="vertical-align:top;">:</td><td><div>pt-PT,pt;q=0.9,en-US;q=0.8,en;q=0.7</div></td></tr><tr><td style="font-weight:bold;vertical-align:top;">HTTP_CONNECTION</td><td style="vertical-align:top;">:</td><td><div>keep-alive</div></td></tr><tr><td style="font-weight:bold;vertical-align:top;">HTTP_CONTENT_TYPE</td><td style="vertical-align:top;">:</td><td><div>application/x-www-form-urlencoded; charset=UTF-8</div></td></tr><tr><td style="font-weight:bold;vertical-align:top;">HTTP_COOKIE</td><td style="vertical-align:top;">:</td><td><div>_ga=GA1.2.1687211520.1580229767; _fbp=fb.1.1599840715737.1353081964; session_id_datalake=89.181.225.70-a2e981c9-02ff-45b2-9d89-834a219a2619</div></td></tr><tr><td style="font-weight:bold;vertical-align:top;">HTTP_HOST</td><td style="vertical-align:top;">:</td><td><div>cehum.ilch.uminho.pt</div></td></tr><tr><td style="font-weight:bold;vertical-align:top;">HTTP_REFERER</td><td style="vertical-align:top;">:</td><td><div>http://cehum.ilch.uminho.pt/datalake</div></td></tr><tr><td style="font-weight:bold;vertical-align:top;">HTTP_USER_AGENT</td><td style="vertical-align:top;">:</td><td><div>Mozilla/5.0 (Windows NT 10.0; Win64; x64) AppleWebKit/537.36 (KHTML, like Gecko) Chrome/86.0.4240.198 Safari/537.36</div></td></tr><tr><td style="font-weight:bold;vertical-align:top;">HTTP_WEB2PY_COMPONENT_ELEMENT</td><td style="vertical-align:top;">:</td><td><div>c636795679846</div></td></tr><tr><td style="font-weight:bold;vertical-align:top;">HTTP_WEB2PY_COMPONENT_LOCATION</td><td style="vertical-align:top;">:</td><td><div>http://cehum.ilch.uminho.pt/datalake</div></td></tr><tr><td style="font-weight:bold;vertical-align:top;">HTTP_X_REQUESTED_WITH</td><td style="vertical-align:top;">:</td><td><div>XMLHttpRequest</div></td></tr><tr><td style="font-weight:bold;vertical-align:top;">PATH_INFO</td><td style="vertical-align:top;">:</td><td><div>/datalake/sensor1.load</div></td></tr><tr><td style="font-weight:bold;vertical-align:top;">QUERY_STRING</td><td style="vertical-align:top;">:</td><td><div></div></td></tr><tr><td style="font-weight:bold;vertical-align:top;">REMOTE_ADDR</td><td style="vertical-align:top;">:</td><td><div>89.181.225.70</div></td></tr><tr><td style="font-weight:bold;vertical-align:top;">REMOTE_PORT</td><td style="vertical-align:top;">:</td><td><div>60955</div></td></tr><tr><td style="font-weight:bold;vertical-align:top;">REQUEST_METHOD</td><td style="vertical-align:top;">:</td><td><div>GET</div></td></tr><tr><td style="font-weight:bold;vertical-align:top;">REQUEST_SCHEME</td><td style="vertical-align:top;">:</td><td><div>http</div></td></tr><tr><td style="font-weight:bold;vertical-align:top;">REQUEST_URI</td><td style="vertical-align:top;">:</td><td><div>/datalake/sensor1.load</div></td></tr><tr><td style="font-weight:bold;vertical-align:top;">SERVER_NAME</td><td style="vertical-align:top;">:</td><td><div>cehum.ilch.uminho.pt</div></td></tr><tr><td style="font-weight:bold;vertical-align:top;">SERVER_PORT</td><td style="vertical-align:top;">:</td><td><div>80</div></td></tr><tr><td style="font-weight:bold;vertical-align:top;">SERVER_PROTOCOL</td><td style="vertical-align:top;">:</td><td><div>HTTP/1.1</div></td></tr><tr><td style="font-weight:bold;vertical-align:top;">SERVER_SOFTWARE</td><td style="vertical-align:top;">:</td><td><div>nginx/1.10.3</div></td></tr><tr><td style="font-weight:bold;vertical-align:top;">UWSGI_SCHEME</td><td style="vertical-align:top;">:</td><td><div>http</div></td></tr><tr><td style="font-weight:bold;vertical-align:top;">app_folders</td><td style="vertical-align:top;">:</td><td><div>set([&#x27;/var/www/web2py/applications/cehum/&#x27;, &#x27;/var/www/web2py/applications/narrativas/&#x27;, &#x27;/var/www/web2py/applications/microrrelatos_xaquinnunez/&#x27;, &#x27;/var/www/web2py/applications/datalake/&#x27;, &#x27;/var/www/web2py/applications/aieti/&#x27;, &#x27;/var/www/web2py/applications/admin/&#x27;])</div></td></tr><tr><td style="font-weight:bold;vertical-align:top;">applications_parent</td><td style="vertical-align:top;">:</td><td><div>/var/www/web2py</div></td></tr><tr><td style="font-weight:bold;vertical-align:top;">content_length</td><td style="vertical-align:top;">:</td><td><div></div></td></tr><tr><td style="font-weight:bold;vertical-align:top;">content_type</td><td style="vertical-align:top;">:</td><td><div>application/x-www-form-urlencoded; charset=UTF-8</div></td></tr><tr><td style="font-weight:bold;vertical-align:top;">db_sessions</td><td style="vertical-align:top;">:</td><td><div>set([])</div></td></tr><tr><td style="font-weight:bold;vertical-align:top;">debugging</td><td style="vertical-align:top;">:</td><td><div>False</div></td></tr><tr><td style="font-weight:bold;vertical-align:top;">document_root</td><td style="vertical-align:top;">:</td><td><div>/usr/share/nginx/html</div></td></tr><tr><td style="font-weight:bold;vertical-align:top;">gluon_parent</td><td style="vertical-align:top;">:</td><td><div>/var/www/web2py</div></td></tr><tr><td style="font-weight:bold;vertical-align:top;">http_accept</td><td style="vertical-align:top;">:</td><td><div>*/*</div></td></tr><tr><td style="font-weight:bold;vertical-align:top;">http_accept_encoding</td><td style="vertical-align:top;">:</td><td><div>gzip, deflate</div></td></tr><tr><td style="font-weight:bold;vertical-align:top;">http_accept_language</td><td style="vertical-align:top;">:</td><td><div>pt-PT,pt;q=0.9,en-US;q=0.8,en;q=0.7</div></td></tr><tr><td style="font-weight:bold;vertical-align:top;">http_connection</td><td style="vertical-align:top;">:</td><td><div>keep-alive</div></td></tr><tr><td style="font-weight:bold;vertical-align:top;">http_content_type</td><td style="vertical-align:top;">:</td><td><div>application/x-www-form-urlencoded; charset=UTF-8</div></td></tr><tr><td style="font-weight:bold;vertical-align:top;">http_cookie</td><td style="vertical-align:top;">:</td><td><div>_ga=GA1.2.1687211520.1580229767; _fbp=fb.1.1599840715737.1353081964; session_id_datalake=89.181.225.70-a2e981c9-02ff-45b2-9d89-834a219a2619</div></td></tr><tr><td style="font-weight:bold;vertical-align:top;">http_host</td><td style="vertical-align:top;">:</td><td><div>cehum.ilch.uminho.pt</div></td></tr><tr><td style="font-weight:bold;vertical-align:top;">http_referer</td><td style="vertical-align:top;">:</td><td><div>http://cehum.ilch.uminho.pt/datalake</div></td></tr><tr><td style="font-weight:bold;vertical-align:top;">http_user_agent</td><td style="vertical-align:top;">:</td><td><div>Mozilla/5.0 (Windows NT 10.0; Win64; x64) AppleWebKit/537.36 (KHTML, like Gecko) Chrome/86.0.4240.198 Safari/537.36</div></td></tr><tr><td style="font-weight:bold;vertical-align:top;">http_web2py_component_element</td><td style="vertical-align:top;">:</td><td><div>c636795679846</div></td></tr><tr><td style="font-weight:bold;vertical-align:top;">http_web2py_component_location</td><td style="vertical-align:top;">:</td><td><div>http://cehum.ilch.uminho.pt/datalake</div></td></tr><tr><td style="font-weight:bold;vertical-align:top;">http_x_requested_with</td><td style="vertical-align:top;">:</td><td><div>XMLHttpRequest</div></td></tr><tr><td style="font-weight:bold;vertical-align:top;">is_jython</td><td style="vertical-align:top;">:</td><td><div>False</div></td></tr><tr><td style="font-weight:bold;vertical-align:top;">is_py2</td><td style="vertical-align:top;">:</td><td><div>True</div></td></tr><tr><td style="font-weight:bold;vertical-align:top;">is_pypy</td><td style="vertical-align:top;">:</td><td><div>False</div></td></tr><tr><td style="font-weight:bold;vertical-align:top;">is_source</td><td style="vertical-align:top;">:</td><td><div>True</div></td></tr><tr><td style="font-weight:bold;vertical-align:top;">local_hosts</td><td style="vertical-align:top;">:</td><td><div><table><tr><td><div>cehum.ilch.uminho.pt</div></td></tr><tr><td><div>::ffff:127.0.0.1</div></td></tr><tr><td><div>::1</div></td></tr><tr><td><div>193.137.11.51</div></td></tr><tr><td><div>srv-webcehum.scom.uminho.pt</div></td></tr><tr><td><div>srv-webcehum</div></td></tr><tr><td><div>127.0.0.1</div></td></tr></table></div></td></tr><tr><td style="font-weight:bold;vertical-align:top;">path_info</td><td style="vertical-align:top;">:</td><td><div>/datalake/sensor1.load</div></td></tr><tr><td style="font-weight:bold;vertical-align:top;">query_string</td><td style="vertical-align:top;">:</td><td><div></div></td></tr><tr><td style="font-weight:bold;vertical-align:top;">remote_addr</td><td style="vertical-align:top;">:</td><td><div>89.181.225.70</div></td></tr><tr><td style="font-weight:bold;vertical-align:top;">remote_port</td><td style="vertical-align:top;">:</td><td><div>60955</div></td></tr><tr><td style="font-weight:bold;vertical-align:top;">request_method</td><td style="vertical-align:top;">:</td><td><div>GET</div></td></tr><tr><td style="font-weight:bold;vertical-align:top;">request_scheme</td><td style="vertical-align:top;">:</td><td><div>http</div></td></tr><tr><td style="font-weight:bold;vertical-align:top;">request_uri</td><td style="vertical-align:top;">:</td><td><div>/datalake/default/sensor1.load</div></td></tr><tr><td style="font-weight:bold;vertical-align:top;">server_name</td><td style="vertical-align:top;">:</td><td><div>cehum.ilch.uminho.pt</div></td></tr><tr><td style="font-weight:bold;vertical-align:top;">server_port</td><td style="vertical-align:top;">:</td><td><div>80</div></td></tr><tr><td style="font-weight:bold;vertical-align:top;">server_protocol</td><td style="vertical-align:top;">:</td><td><div>HTTP/1.1</div></td></tr><tr><td style="font-weight:bold;vertical-align:top;">server_software</td><td style="vertical-align:top;">:</td><td><div>nginx/1.10.3</div></td></tr><tr><td style="font-weight:bold;vertical-align:top;">uwsgi.node</td><td style="vertical-align:top;">:</td><td><div>srv-webcehum</div></td></tr><tr><td style="font-weight:bold;vertical-align:top;">uwsgi.version</td><td style="vertical-align:top;">:</td><td><div>2.0.18</div></td></tr><tr><td style="font-weight:bold;vertical-align:top;">uwsgi_node</td><td style="vertical-align:top;">:</td><td><div>srv-webcehum</div></td></tr><tr><td style="font-weight:bold;vertical-align:top;">uwsgi_scheme</td><td style="vertical-align:top;">:</td><td><div>http</div></td></tr><tr><td style="font-weight:bold;vertical-align:top;">uwsgi_version</td><td style="vertical-align:top;">:</td><td><div>2.0.18</div></td></tr><tr><td style="font-weight:bold;vertical-align:top;">web2py_original_uri</td><td style="vertical-align:top;">:</td><td><div>/datalake/sensor1.load</div></td></tr><tr><td style="font-weight:bold;vertical-align:top;">web2py_path</td><td style="vertical-align:top;">:</td><td><div>/var/www/web2py</div></td></tr><tr><td style="font-weight:bold;vertical-align:top;">web2py_version</td><td style="vertical-align:top;">:</td><td><div>2.17.1-stable+timestamp.2018.08.06.01.02.56</div></td></tr><tr><td style="font-weight:bold;vertical-align:top;">wsgi.errors</td><td style="vertical-align:top;">:</td><td><div>&lt;open file &#x27;wsgi_errors&#x27;, mode &#x27;w&#x27; at 0x7f2cf7039ed0&gt;</div></td></tr><tr><td style="font-weight:bold;vertical-align:top;">wsgi.file_wrapper</td><td style="vertical-align:top;">:</td><td><div>&lt;built-in function uwsgi_sendfile&gt;</div></td></tr><tr><td style="font-weight:bold;vertical-align:top;">wsgi.input</td><td style="vertical-align:top;">:</td><td><div>&lt;uwsgi._Input object at 0x7f2cf58585e8&gt;</div></td></tr><tr><td style="font-weight:bold;vertical-align:top;">wsgi.multiprocess</td><td style="vertical-align:top;">:</td><td><div>True</div></td></tr><tr><td style="font-weight:bold;vertical-align:top;">wsgi.multithread</td><td style="vertical-align:top;">:</td><td><div>False</div></td></tr><tr><td style="font-weight:bold;vertical-align:top;">wsgi.run_once</td><td style="vertical-align:top;">:</td><td><div>False</div></td></tr><tr><td style="font-weight:bold;vertical-align:top;">wsgi.url_scheme</td><td style="vertical-align:top;">:</td><td><div>http</div></td></tr><tr><td style="font-weight:bold;vertical-align:top;">wsgi.version</td><td style="vertical-align:top;">:</td><td><div><table><tr><td><div>1</div></td></tr><tr><td><div>0</div></td></tr></table></div></td></tr><tr><td style="font-weight:bold;vertical-align:top;">wsgi_errors</td><td style="vertical-align:top;">:</td><td><div>&lt;open file &#x27;wsgi_errors&#x27;, mode &#x27;w&#x27; at 0x7f2cf7039ed0&gt;</div></td></tr><tr><td style="font-weight:bold;vertical-align:top;">wsgi_file_wrapper</td><td style="vertical-align:top;">:</td><td><div>&lt;built-in function uwsgi_sendfile&gt;</div></td></tr><tr><td style="font-weight:bold;vertical-align:top;">wsgi_input</td><td style="vertical-align:top;">:</td><td><div>&lt;uwsgi._Input object at 0x7f2cf58585e8&gt;</div></td></tr><tr><td style="font-weight:bold;vertical-align:top;">wsgi_multiprocess</td><td style="vertical-align:top;">:</td><td><div>True</div></td></tr><tr><td style="font-weight:bold;vertical-align:top;">wsgi_multithread</td><td style="vertical-align:top;">:</td><td><div>False</div></td></tr><tr><td style="font-weight:bold;vertical-align:top;">wsgi_run_once</td><td style="vertical-align:top;">:</td><td><div>False</div></td></tr><tr><td style="font-weight:bold;vertical-align:top;">wsgi_url_scheme</td><td style="vertical-align:top;">:</td><td><div>http</div></td></tr><tr><td style="font-weight:bold;vertical-align:top;">wsgi_version</td><td style="vertical-align:top;">:</td><td><div><table><tr><td><div>1</div></td></tr><tr><td><div>0</div></td></tr></table></div></td></tr></table></div></td></tr><tr><td style="font-weight:bold;vertical-align:top;">extension</td><td style="vertical-align:top;">:</td><td><div>load</div></td></tr><tr><td style="font-weight:bold;vertical-align:top;">folder</td><td style="vertical-align:top;">:</td><td><div>/var/www/web2py/applications/datalake/</div></td></tr><tr><td style="font-weight:bold;vertical-align:top;">function</td><td style="vertical-align:top;">:</td><td><div>sensor1</div></td></tr><tr><td style="font-weight:bold;vertical-align:top;">global_settings</td><td style="vertical-align:top;">:</td><td><div><table><tr><td style="font-weight:bold;vertical-align:top;">app_folders</td><td style="vertical-align:top;">:</td><td><div>set([&#x27;/var/www/web2py/applications/cehum/&#x27;, &#x27;/var/www/web2py/applications/narrativas/&#x27;, &#x27;/var/www/web2py/applications/microrrelatos_xaquinnunez/&#x27;, &#x27;/var/www/web2py/applications/datalake/&#x27;, &#x27;/var/www/web2py/applications/aieti/&#x27;, &#x27;/var/www/web2py/applications/admin/&#x27;])</div></td></tr><tr><td style="font-weight:bold;vertical-align:top;">applications_parent</td><td style="vertical-align:top;">:</td><td><div>/var/www/web2py</div></td></tr><tr><td style="font-weight:bold;vertical-align:top;">db_sessions</td><td style="vertical-align:top;">:</td><td><div>set([])</div></td></tr><tr><td style="font-weight:bold;vertical-align:top;">debugging</td><td style="vertical-align:top;">:</td><td><div>False</div></td></tr><tr><td style="font-weight:bold;vertical-align:top;">gluon_parent</td><td style="vertical-align:top;">:</td><td><div>/var/www/web2py</div></td></tr><tr><td style="font-weight:bold;vertical-align:top;">is_jython</td><td style="vertical-align:top;">:</td><td><div>False</div></td></tr><tr><td style="font-weight:bold;vertical-align:top;">is_py2</td><td style="vertical-align:top;">:</td><td><div>True</div></td></tr><tr><td style="font-weight:bold;vertical-align:top;">is_pypy</td><td style="vertical-align:top;">:</td><td><div>False</div></td></tr><tr><td style="font-weight:bold;vertical-align:top;">is_source</td><td style="vertical-align:top;">:</td><td><div>True</div></td></tr><tr><td style="font-weight:bold;vertical-align:top;">local_hosts</td><td style="vertical-align:top;">:</td><td><div><table><tr><td><div>cehum.ilch.uminho.pt</div></td></tr><tr><td><div>::ffff:127.0.0.1</div></td></tr><tr><td><div>::1</div></td></tr><tr><td><div>193.137.11.51</div></td></tr><tr><td><div>srv-webcehum.scom.uminho.pt</div></td></tr><tr><td><div>srv-webcehum</div></td></tr><tr><td><div>127.0.0.1</div></td></tr></table></div></td></tr><tr><td style="font-weight:bold;vertical-align:top;">web2py_version</td><td style="vertical-align:top;">:</td><td><div>2.17.1-stable+timestamp.2018.08.06.01.02.56</div></td></tr></table></div></td></tr><tr><td style="font-weight:bold;vertical-align:top;">is_https</td><td style="vertical-align:top;">:</td><td><div>False</div></td></tr><tr><td style="font-weight:bold;vertical-align:top;">is_local</td><td style="vertical-align:top;">:</td><td><div>False</div></td></tr><tr><td style="font-weight:bold;vertical-align:top;">is_restful</td><td style="vertical-align:top;">:</td><td><div>False</div></td></tr><tr><td style="font-weight:bold;vertical-align:top;">is_scheduler</td><td style="vertical-align:top;">:</td><td><div>False</div></td></tr><tr><td style="font-weight:bold;vertical-align:top;">is_shell</td><td style="vertical-align:top;">:</td><td><div>False</div></td></tr><tr><td style="font-weight:bold;vertical-align:top;">method</td><td style="vertical-align:top;">:</td><td><div>GET</div></td></tr><tr><td style="font-weight:bold;vertical-align:top;">now</td><td style="vertical-align:top;">:</td><td><div>datetime.datetime(2020, 11, 18, 19, 44, 30, 475252)</div></td></tr><tr><td style="font-weight:bold;vertical-align:top;">url</td><td style="vertical-align:top;">:</td><td><div>/datalake/sensor1.load</div></td></tr><tr><td style="font-weight:bold;vertical-align:top;">utcnow</td><td style="vertical-align:top;">:</td><td><div>datetime.datetime(2020, 11, 18, 19, 44, 30, 475277)</div></td></tr><tr><td style="font-weight:bold;vertical-align:top;">wsgi</td><td style="vertical-align:top;">:</td><td><div>&lt;gluon.main.LazyWSGI object at 0x7f2cf6550050&gt;</div></td></tr></table></div>'
tRp72
sS'frames'
p73
(lp74
(dp75
S'file'
p76
S'/var/www/web2py/gluon/restricted.py'
p77
sS'dump'
p78
(dp79
S'environment'
p80
S"{'A': <class 'gluon.html.A'>, 'ANY_OF': <class 'gluon.validators.ANY_OF'>, 'ASSIGNJS': <function ASSIGNJS>, 'AppConfig': <function AppConfig>, 'Auth': <class 'gluon.tools.Auth'>, 'B': <class 'gluon.html.B'>, 'BEAUTIFY': <class 'gluon.html.BEAUTIFY'>, 'BODY': <class 'gluon.html.BODY'>, 'BR': <class 'gluon.html.BR'>, 'BUTTON': <class 'gluon.html.BUTTON'>, ...}"
p81
sS'ccode'
p82
S'<code object <module> at 0x7f2cf6064a30, file "/...applications/datalake/models/sensor1.py", line 3>'
p83
ssS'lnum'
p84
I219
sS'lines'
p85
(dp86
I214
S'    if environment is None:'
p87
sI215
S'        environment = {}'
p88
sI216
S"    environment['__file__'] = layer"
p89
sI217
S"    environment['__name__'] = '__restricted__'"
p90
sI218
S'    try:'
p91
sI219
S'        exec(ccode, environment)'
p92
sI220
S'    except HTTP:'
p93
sI221
S'        raise'
p94
sI222
S'    except RestrictedError:'
p95
sI223
S'        # do not encapsulate (obfuscate) the original RestrictedError'
p96
ssS'call'
p97
S'(ccode=<code object <module> at 0x7f2cf6064a30, file "/...applications/datalake/models/sensor1.py", line 3>, environment={\'A\': <class \'gluon.html.A\'>, \'ANY_OF\': <class \'gluon.validators.ANY_OF\'>, \'ASSIGNJS\': <function ASSIGNJS>, \'AppConfig\': <function AppConfig>, \'Auth\': <class \'gluon.tools.Auth\'>, \'B\': <class \'gluon.html.B\'>, \'BEAUTIFY\': <class \'gluon.html.BEAUTIFY\'>, \'BODY\': <class \'gluon.html.BODY\'>, \'BR\': <class \'gluon.html.BR\'>, \'BUTTON\': <class \'gluon.html.BUTTON\'>, ...}, layer=\'/var/www/web2py/applications/datalake/models/sensor1.py\', scode=<code object <module> at 0x7f2cf6064a30, file "/...applications/datalake/models/sensor1.py", line 3>)'
p98
sS'func'
p99
S'restricted'
p100
sa(dp101
g76
S'/var/www/web2py/applications/datalake/models/sensor1.py'
p102
sg78
(dp103
S'default'
p104
S'undefined'
p105
sS'Field'
p106
S"<class 'pydal.objects.Field'>"
p107
ssg84
I9
sg85
(dp108
I1
S'# -*- coding: utf-8 -*-'
p109
sI2
S''
sI3
S"db.define_table('sensor1',"
p110
sI4
S"                Field('carId', 'string'),"
p111
sI5
S"                Field('carLocation', 'string'),"
p112
sI6
S"                Field('timeValue', 'datetime'),"
p113
sI7
S"                Field('pm25', 'double'),"
p114
sI8
S"                Field('pm10', 'double'),"
p115
sI9
S"                Field('tags', 'string:list', default='janela aberta')"
p116
sI10
S'               )'
p117
ssg97
S'()'
p118
sg99
S'<module>'
p119
sa(dp120
g76
S'/var/www/web2py/gluon/packages/dal/pydal/base.py'
p121
sg78
(dp122
S'fields'
p123
S'(<pydal.objects.Field object>, <pydal.objects.Field object>, <pydal.objects.Field object>, <pydal.objects.Field object>, <pydal.objects.Field object>, <pydal.objects.Field object>)'
p124
sS'self'
p125
S'<DAL uri="sqlite://storage.sqlite">'
p126
sS'tablename'
p127
S"'sensor1'"
p128
sS'kwargs'
p129
g21
sS'table'
p130
g105
sS'self.lazy_define_table'
p131
S'<bound method DAL.lazy_define_table of <DAL uri="sqlite://storage.sqlite">>'
p132
ssg84
I590
sg85
(dp133
I585
S'        if self._lazy_tables:'
p134
sI586
S'            if tablename not in self._LAZY_TABLES or redefine:'
p135
sI587
S'                self._LAZY_TABLES[tablename] = (tablename, fields, kwargs)'
p136
sI588
S'            table = None'
p137
sI589
S'        else:'
p138
sI590
S'            table = self.lazy_define_table(tablename, *fields, **kwargs)'
p139
sI591
S'        if tablename not in self.tables:'
p140
sI592
S'            self.tables.append(tablename)'
p141
sI593
S'        return table'
p142
sI594
S''
ssg97
S'(self=<DAL uri="sqlite://storage.sqlite">, tablename=\'sensor1\', *fields=(<pydal.objects.Field object>, <pydal.objects.Field object>, <pydal.objects.Field object>, <pydal.objects.Field object>, <pydal.objects.Field object>, <pydal.objects.Field object>), **kwargs={})'
p143
sg99
S'define_table'
p144
sa(dp145
g76
S'/var/www/web2py/gluon/packages/dal/pydal/base.py'
p146
sg78
(dp147
S'polymodel'
p148
S'None'
p149
ssg84
I624
sg85
(dp150
I619
S'            try:'
p151
sI620
S'                GLOBAL_LOCKER.acquire()'
p152
sI621
S'                self._adapter.create_table('
p153
sI622
S'                    table, migrate=migrate,'
p154
sI623
S'                    fake_migrate=fake_migrate,'
p155
sI624
S'                    polymodel=polymodel)'
p156
sI625
S'            finally:'
p157
sI626
S'                GLOBAL_LOCKER.release()'
p158
sI627
S'        else:'
p159
sI628
S'            table._dbt = None'
p160
ssg97
S'(self=<DAL uri="sqlite://storage.sqlite">, tablename=\'sensor1\', *fields=(<pydal.objects.Field object>, <pydal.objects.Field object>, <pydal.objects.Field object>, <pydal.objects.Field object>, <pydal.objects.Field object>, <pydal.objects.Field object>), **kwargs={})'
p161
sg99
S'lazy_define_table'
p162
sa(dp163
g76
S'/var/www/web2py/gluon/packages/dal/pydal/adapters/base.py'
p164
sg78
(dp165
S'self'
p166
S'<pydal.adapters.sqlite.SQLite object>'
p167
sS'args'
p168
S'(<Table sensor1 (id, carId, carLocation, timeValue, pm25, pm10, tags)>,)'
p169
sS'self.migrator'
p170
S'<pydal.migrator.Migrator object>'
p171
sS'self.migrator.create_table'
p172
S'<bound method Migrator.create_table of <pydal.migrator.Migrator object>>'
p173
sS'kwargs'
p174
S"{'fake_migrate': False, 'migrate': True, 'polymodel': None}"
p175
ssg84
I798
sg85
(dp176
I800
S'    def _drop_table_cleanup(self, table):'
p177
sI801
S'        super(SQLAdapter, self)._drop_table_cleanup(table)'
p178
sI802
S'        if table._dbt:'
p179
sI793
S''
sI794
S'    def bulk_insert(self, table, items):'
p180
sI795
S'        return [self.insert(table, item) for item in items]'
p181
sI796
S''
sI797
S'    def create_table(self, *args, **kwargs):'
p182
sI798
S'        return self.migrator.create_table(*args, **kwargs)'
p183
sI799
S''
ssg97
S"(self=<pydal.adapters.sqlite.SQLite object>, *args=(<Table sensor1 (id, carId, carLocation, timeValue, pm25, pm10, tags)>,), **kwargs={'fake_migrate': False, 'migrate': True, 'polymodel': None})"
p184
sg99
S'create_table'
p185
sa(dp186
g76
S'/var/www/web2py/gluon/packages/dal/pydal/migrator.py'
p187
sg78
(dp188
S'field_type'
p189
S"'string:list'"
p190
sS'field_name'
p191
S"'tags'"
p192
ssg84
I168
sg85
(dp193
I163
S'                                         fieldname=field._raw_rname, srid=srid,'
p194
sI164
S'                                         dimension=dimension)'
p195
sI165
S'                    postcreation_fields.append(ftype)'
p196
sI166
S'            elif field_type not in types:'
p197
sI167
S"                raise SyntaxError('Field: unknown field type: %s for %s' % ("
p198
sI168
S'                    field_type, field_name))'
p199
sI169
S'            else:'
p200
sI170
S"                ftype = types[field_type] % {'length': field.length}"
p201
sI171
S''
sI172
S"            if not field_type.startswith(('id', 'reference', 'big-reference')):"
p202
ssg97
S'(self=<pydal.migrator.Migrator object>, table=<Table sensor1 (id, carId, carLocation, timeValue, pm25, pm10, tags)>, migrate=True, fake_migrate=False, polymodel=None)'
p203
sg99
g185
sasS'pyver'
p204
S'Python 2.7.12: /usr/local/bin/uwsgi (prefix: /usr)'
p205
sS'session'
p206
g71
(S's\x1a\x00\x00\x00<div><table></table></div>'
tRp207
sS'etype'
p208
S"<type 'exceptions.SyntaxError'>"
p209
sS'date'
p210
S'Wed Nov 18 19:44:30 2020'
p211
sS'response'
p212
g71
(S's\x87=\x00\x00<div><table><tr><td style="font-weight:bold;vertical-align:top;">body</td><td style="vertical-align:top;">:</td><td><div>&lt;cStringIO.StringO object at 0x7f2cf5aba8b8&gt;</div></td></tr><tr><td style="font-weight:bold;vertical-align:top;">cookies</td><td style="vertical-align:top;">:</td><td><div><table><tr><td style="font-weight:bold;vertical-align:top;">session_id_datalake</td><td style="vertical-align:top;">:</td><td><div>89.181.225.70-a2e981c9-02ff-45b2-9d89-834a219a2619<table><tr><td style="font-weight:bold;vertical-align:top;">comment</td><td style="vertical-align:top;">:</td><td><div></div></td></tr><tr><td style="font-weight:bold;vertical-align:top;">domain</td><td style="vertical-align:top;">:</td><td><div></div></td></tr><tr><td style="font-weight:bold;vertical-align:top;">expires</td><td style="vertical-align:top;">:</td><td><div></div></td></tr><tr><td style="font-weight:bold;vertical-align:top;">httponly</td><td style="vertical-align:top;">:</td><td><div></div></td></tr><tr><td style="font-weight:bold;vertical-align:top;">max-age</td><td style="vertical-align:top;">:</td><td><div></div></td></tr><tr><td style="font-weight:bold;vertical-align:top;">path</td><td style="vertical-align:top;">:</td><td><div>/</div></td></tr><tr><td style="font-weight:bold;vertical-align:top;">secure</td><td style="vertical-align:top;">:</td><td><div></div></td></tr><tr><td style="font-weight:bold;vertical-align:top;">version</td><td style="vertical-align:top;">:</td><td><div></div></td></tr></table></div></td></tr></table></div></td></tr><tr><td style="font-weight:bold;vertical-align:top;">delimiters</td><td style="vertical-align:top;">:</td><td><div><table><tr><td><div>{{</div></td></tr><tr><td><div>}}</div></td></tr></table></div></td></tr><tr><td style="font-weight:bold;vertical-align:top;">files</td><td style="vertical-align:top;">:</td><td><div><table></table></div></td></tr><tr><td style="font-weight:bold;vertical-align:top;">flash</td><td style="vertical-align:top;">:</td><td><div></div></td></tr><tr><td style="font-weight:bold;vertical-align:top;">form_label_separator</td><td style="vertical-align:top;">:</td><td><div></div></td></tr><tr><td style="font-weight:bold;vertical-align:top;">formstyle</td><td style="vertical-align:top;">:</td><td><div>bootstrap4_inline</div></td></tr><tr><td style="font-weight:bold;vertical-align:top;">generic_patterns</td><td style="vertical-align:top;">:</td><td><div><table></table></div></td></tr><tr><td style="font-weight:bold;vertical-align:top;">google_analytics_id</td><td style="vertical-align:top;">:</td><td><div>None</div></td></tr><tr><td style="font-weight:bold;vertical-align:top;">headers</td><td style="vertical-align:top;">:</td><td><div><table><tr><td style="font-weight:bold;vertical-align:top;">X-Powered-By</td><td style="vertical-align:top;">:</td><td><div>web2py</div></td></tr></table></div></td></tr><tr><td style="font-weight:bold;vertical-align:top;">menu</td><td style="vertical-align:top;">:</td><td><div><table><tr><td><div><table><tr><td><div>Home</div></td></tr><tr><td><div>False</div></td></tr><tr><td><div>/datalake/index.load</div></td></tr><tr><td><div><table></table></div></td></tr></table></div></td></tr><tr><td><div><table><tr><td><div>My Sites</div></td></tr><tr><td><div>False</div></td></tr><tr><td><div>/admin/site.load</div></td></tr></table></div></td></tr><tr><td><div><table><tr><td><div>This App</div></td></tr><tr><td><div>False</div></td></tr><tr><td><div>#</div></td></tr><tr><td><div><table><tr><td><div><table><tr><td><div>Design</div></td></tr><tr><td><div>False</div></td></tr><tr><td><div>/admin/design.load/datalake</div></td></tr></table></div></td></tr><tr><td><div><table><tr><td><div>Controlador</div></td></tr><tr><td><div>False</div></td></tr><tr><td><div>/admin/edit.load/datalake/controllers/default.py</div></td></tr></table></div></td></tr><tr><td><div><table><tr><td><div>Vista</div></td></tr><tr><td><div>False</div></td></tr><tr><td><div>/admin/edit.load/datalake/views/default/sensor1.load</div></td></tr></table></div></td></tr><tr><td><div><table><tr><td><div>Modelo de BD</div></td></tr><tr><td><div>False</div></td></tr><tr><td><div>/admin/edit.load/datalake/models/db.py</div></td></tr></table></div></td></tr><tr><td><div><table><tr><td><div>Menu do Modelo</div></td></tr><tr><td><div>False</div></td></tr><tr><td><div>/admin/edit.load/datalake/models/menu.py</div></td></tr></table></div></td></tr><tr><td><div><table><tr><td><div>Config.ini</div></td></tr><tr><td><div>False</div></td></tr><tr><td><div>/admin/edit.load/datalake/private/appconfig.ini</div></td></tr></table></div></td></tr><tr><td><div><table><tr><td><div>Esbo\xc3\xa7o</div></td></tr><tr><td><div>False</div></td></tr><tr><td><div>/admin/edit.load/datalake/views/layout.html</div></td></tr></table></div></td></tr><tr><td><div><table><tr><td><div>Folha de estilo</div></td></tr><tr><td><div>False</div></td></tr><tr><td><div>/admin/edit.load/datalake/static/css/web2py-bootstrap3.css</div></td></tr></table></div></td></tr><tr><td><div><table><tr><td><div>base de dados</div></td></tr><tr><td><div>False</div></td></tr><tr><td><div>/datalake/appadmin/index.load</div></td></tr></table></div></td></tr><tr><td><div><table><tr><td><div>Erros</div></td></tr><tr><td><div>False</div></td></tr><tr><td><div>/admin/errors.load/datalake</div></td></tr></table></div></td></tr><tr><td><div><table><tr><td><div>Sobre</div></td></tr><tr><td><div>False</div></td></tr><tr><td><div>/admin/about.load/datalake</div></td></tr></table></div></td></tr></table></div></td></tr></table></div></td></tr><tr><td><div><table><tr><td><div>web2py.com</div></td></tr><tr><td><div>False</div></td></tr><tr><td><div>#</div></td></tr><tr><td><div><table><tr><td><div><table><tr><td><div>Download</div></td></tr><tr><td><div>False</div></td></tr><tr><td><div>http://www.web2py.com/examples/default/download</div></td></tr></table></div></td></tr><tr><td><div><table><tr><td><div>Support</div></td></tr><tr><td><div>False</div></td></tr><tr><td><div>http://www.web2py.com/examples/default/support</div></td></tr></table></div></td></tr><tr><td><div><table><tr><td><div>Demo</div></td></tr><tr><td><div>False</div></td></tr><tr><td><div>http://web2py.com/demo_admin</div></td></tr></table></div></td></tr><tr><td><div><table><tr><td><div>Quick Examples</div></td></tr><tr><td><div>False</div></td></tr><tr><td><div>http://web2py.com/examples/default/examples</div></td></tr></table></div></td></tr><tr><td><div><table><tr><td><div>FAQ</div></td></tr><tr><td><div>False</div></td></tr><tr><td><div>http://web2py.com/AlterEgo</div></td></tr></table></div></td></tr><tr><td><div><table><tr><td><div>Videos</div></td></tr><tr><td><div>False</div></td></tr><tr><td><div>http://www.web2py.com/examples/default/videos/</div></td></tr></table></div></td></tr><tr><td><div><table><tr><td><div>Free Applications</div></td></tr><tr><td><div>False</div></td></tr><tr><td><div>http://web2py.com/appliances</div></td></tr></table></div></td></tr><tr><td><div><table><tr><td><div>Plugins</div></td></tr><tr><td><div>False</div></td></tr><tr><td><div>http://web2py.com/plugins</div></td></tr></table></div></td></tr><tr><td><div><table><tr><td><div>Receitas</div></td></tr><tr><td><div>False</div></td></tr><tr><td><div>http://web2pyslices.com/</div></td></tr></table></div></td></tr></table></div></td></tr></table></div></td></tr><tr><td><div><table><tr><td><div>Documenta\xc3\xa7\xc3\xa3o</div></td></tr><tr><td><div>False</div></td></tr><tr><td><div>#</div></td></tr><tr><td><div><table><tr><td><div><table><tr><td><div>Livro Online</div></td></tr><tr><td><div>False</div></td></tr><tr><td><div>http://www.web2py.com/book</div></td></tr></table></div></td></tr><tr><td><div><table><tr><td><div>Preface</div></td></tr><tr><td><div>False</div></td></tr><tr><td><div>http://www.web2py.com/book/default/chapter/00</div></td></tr></table></div></td></tr><tr><td><div><table><tr><td><div>Introdu\xc3\xa7\xc3\xa3o</div></td></tr><tr><td><div>False</div></td></tr><tr><td><div>http://www.web2py.com/book/default/chapter/01</div></td></tr></table></div></td></tr><tr><td><div><table><tr><td><div>Python</div></td></tr><tr><td><div>False</div></td></tr><tr><td><div>http://www.web2py.com/book/default/chapter/02</div></td></tr></table></div></td></tr><tr><td><div><table><tr><td><div>Overview</div></td></tr><tr><td><div>False</div></td></tr><tr><td><div>http://www.web2py.com/book/default/chapter/03</div></td></tr></table></div></td></tr><tr><td><div><table><tr><td><div>The Core</div></td></tr><tr><td><div>False</div></td></tr><tr><td><div>http://www.web2py.com/book/default/chapter/04</div></td></tr></table></div></td></tr><tr><td><div><table><tr><td><div>The Views</div></td></tr><tr><td><div>False</div></td></tr><tr><td><div>http://www.web2py.com/book/default/chapter/05</div></td></tr></table></div></td></tr><tr><td><div><table><tr><td><div>base de dados</div></td></tr><tr><td><div>False</div></td></tr><tr><td><div>http://www.web2py.com/book/default/chapter/06</div></td></tr></table></div></td></tr><tr><td><div><table><tr><td><div>Forms and Validators</div></td></tr><tr><td><div>False</div></td></tr><tr><td><div>http://www.web2py.com/book/default/chapter/07</div></td></tr></table></div></td></tr><tr><td><div><table><tr><td><div>Email e SMS</div></td></tr><tr><td><div>False</div></td></tr><tr><td><div>http://www.web2py.com/book/default/chapter/08</div></td></tr></table></div></td></tr><tr><td><div><table><tr><td><div>Controle de acesso</div></td></tr><tr><td><div>False</div></td></tr><tr><td><div>http://www.web2py.com/book/default/chapter/09</div></td></tr></table></div></td></tr><tr><td><div><table><tr><td><div>Services</div></td></tr><tr><td><div>False</div></td></tr><tr><td><div>http://www.web2py.com/book/default/chapter/10</div></td></tr></table></div></td></tr><tr><td><div><table><tr><td><div>Formulas Ajax</div></td></tr><tr><td><div>False</div></td></tr><tr><td><div>http://www.web2py.com/book/default/chapter/11</div></td></tr></table></div></td></tr><tr><td><div><table><tr><td><div>Componentes e Plugins</div></td></tr><tr><td><div>False</div></td></tr><tr><td><div>http://www.web2py.com/book/default/chapter/12</div></td></tr></table></div></td></tr><tr><td><div><table><tr><td><div>Deployment Recipes</div></td></tr><tr><td><div>False</div></td></tr><tr><td><div>http://www.web2py.com/book/default/chapter/13</div></td></tr></table></div></td></tr><tr><td><div><table><tr><td><div>Other Recipes</div></td></tr><tr><td><div>False</div></td></tr><tr><td><div>http://www.web2py.com/book/default/chapter/14</div></td></tr></table></div></td></tr><tr><td><div><table><tr><td><div>Helping web2py</div></td></tr><tr><td><div>False</div></td></tr><tr><td><div>http://www.web2py.com/book/default/chapter/15</div></td></tr></table></div></td></tr><tr><td><div><table><tr><td><div>Comprar Livros web2py</div></td></tr><tr><td><div>False</div></td></tr><tr><td><div>http://stores.lulu.com/web2py</div></td></tr></table></div></td></tr></table></div></td></tr></table></div></td></tr><tr><td><div><table><tr><td><div>Comunidade</div></td></tr><tr><td><div>False</div></td></tr><tr><td><div>None</div></td></tr><tr><td><div><table><tr><td><div><table><tr><td><div>Groups</div></td></tr><tr><td><div>False</div></td></tr><tr><td><div>http://www.web2py.com/examples/default/usergroups</div></td></tr></table></div></td></tr><tr><td><div><table><tr><td><div>Twitter</div></td></tr><tr><td><div>False</div></td></tr><tr><td><div>http://twitter.com/web2py</div></td></tr></table></div></td></tr><tr><td><div><table><tr><td><div>Live Chat</div></td></tr><tr><td><div>False</div></td></tr><tr><td><div>http://webchat.freenode.net/?channels=web2py</div></td></tr></table></div></td></tr></table></div></td></tr></table></div></td></tr></table></div></td></tr><tr><td style="font-weight:bold;vertical-align:top;">meta</td><td style="vertical-align:top;">:</td><td><div><table><tr><td style="font-weight:bold;vertical-align:top;">author</td><td style="vertical-align:top;">:</td><td><div>Your Name &lt;you@example.com&gt;</div></td></tr><tr><td style="font-weight:bold;vertical-align:top;">description</td><td style="vertical-align:top;">:</td><td><div>a cool new app</div></td></tr><tr><td style="font-weight:bold;vertical-align:top;">generator</td><td style="vertical-align:top;">:</td><td><div>Web2py Web Framework</div></td></tr><tr><td style="font-weight:bold;vertical-align:top;">keywords</td><td style="vertical-align:top;">:</td><td><div><table><tr><td><div>web2py</div></td></tr><tr><td><div>python</div></td></tr><tr><td><div>framework</div></td></tr></table></div></td></tr></table></div></td></tr><tr><td style="font-weight:bold;vertical-align:top;">models_to_run</td><td style="vertical-align:top;">:</td><td><div><table><tr><td><div>^\\w+\\.py$</div></td></tr><tr><td><div>^default/\\w+\\.py$</div></td></tr><tr><td><div>^default/sensor1/\\w+\\.py$</div></td></tr></table></div></td></tr><tr><td style="font-weight:bold;vertical-align:top;">postprocessing</td><td style="vertical-align:top;">:</td><td><div><table></table></div></td></tr><tr><td style="font-weight:bold;vertical-align:top;">session_client</td><td style="vertical-align:top;">:</td><td><div>89.181.225.70</div></td></tr><tr><td style="font-weight:bold;vertical-align:top;">session_cookie_compression_level</td><td style="vertical-align:top;">:</td><td><div>None</div></td></tr><tr><td style="font-weight:bold;vertical-align:top;">session_cookie_expires</td><td style="vertical-align:top;">:</td><td><div>None</div></td></tr><tr><td style="font-weight:bold;vertical-align:top;">session_data_name</td><td style="vertical-align:top;">:</td><td><div>session_data_datalake</div></td></tr><tr><td style="font-weight:bold;vertical-align:top;">session_file</td><td style="vertical-align:top;">:</td><td><div>&lt;open file &#x27;/var/www/web2py/applications/datalake/sessions/19e/104/89.181.225.70-a2e981c9-02ff-45b2-9d89-834a219a2619&#x27;, mode &#x27;rb+&#x27; at 0x7f2cf6578030&gt;</div></td></tr><tr><td style="font-weight:bold;vertical-align:top;">session_filename</td><td style="vertical-align:top;">:</td><td><div>/var/www/web2py/applications/datalake/sessions/89.181.225.70-a2e981c9-02ff-45b2-9d89-834a219a2619</div></td></tr><tr><td style="font-weight:bold;vertical-align:top;">session_hash</td><td style="vertical-align:top;">:</td><td><div>b1bd3a468f30417bd1f1092f904ec21b</div></td></tr><tr><td style="font-weight:bold;vertical-align:top;">session_id</td><td style="vertical-align:top;">:</td><td><div>89.181.225.70-a2e981c9-02ff-45b2-9d89-834a219a2619</div></td></tr><tr><td style="font-weight:bold;vertical-align:top;">session_id_name</td><td style="vertical-align:top;">:</td><td><div>session_id_datalake</div></td></tr><tr><td style="font-weight:bold;vertical-align:top;">session_locked</td><td style="vertical-align:top;">:</td><td><div>True</div></td></tr><tr><td style="font-weight:bold;vertical-align:top;">session_masterapp</td><td style="vertical-align:top;">:</td><td><div>datalake</div></td></tr><tr><td style="font-weight:bold;vertical-align:top;">session_new</td><td style="vertical-align:top;">:</td><td><div>False</div></td></tr><tr><td style="font-weight:bold;vertical-align:top;">session_storage_type</td><td style="vertical-align:top;">:</td><td><div>file</div></td></tr><tr><td style="font-weight:bold;vertical-align:top;">show_toolbar</td><td style="vertical-align:top;">:</td><td><div>False</div></td></tr><tr><td style="font-weight:bold;vertical-align:top;">status</td><td style="vertical-align:top;">:</td><td><div>200</div></td></tr><tr><td style="font-weight:bold;vertical-align:top;">view</td><td style="vertical-align:top;">:</td><td><div>default/sensor1.load</div></td></tr></table></div>'
tRp213
sS'locals'
p214
(dp215
S'postcreation_fields'
p216
S'[]'
p217
sS'field_type'
p218
S"'string:list'"
p219
sS'sortable'
p220
S'7'
sS'sql_fields_aux'
p221
S"{'carId': {'sql': 'CHAR(512)'}, 'carLocation': {'sql': 'CHAR(512)'}, 'id': {'sql': 'INTEGER PRIMARY KEY AUTOINCREMENT'}, 'pm10': {'sql': 'DOUBLE'}, 'pm25': {'sql': 'DOUBLE'}, 'timeValue': {'sql': 'TIMESTAMP'}}"
p222
sS'TFK'
p223
g21
sS'migrate'
p224
S'True'
p225
sS'fields'
p226
S'[\'"id" INTEGER PRIMARY KEY AUTOINCREMENT\', \'"carId" CHAR(512)\', \'"carLocation" CHAR(512)\', \'"timeValue" TIMESTAMP\', \'"pm25" DOUBLE\', \'"pm10" DOUBLE\']'
p227
sS'self'
p228
S'<pydal.migrator.Migrator object>'
p229
sS'tablename'
p230
S"'sensor1'"
p231
sS'fake_migrate'
p232
S'False'
p233
sS'db'
p234
S'<DAL uri="sqlite://storage.sqlite">'
p235
sS'field'
p236
S'<pydal.objects.Field object>'
p237
sS'ftype'
p238
S"'DOUBLE'"
p239
sS'polymodel'
p240
S'None'
p241
sS'table'
p242
S'<Table sensor1 (id, carId, carLocation, timeValue, pm25, pm10, tags)>'
p243
sS'sql_fields'
p244
S'{\'carId\': {\'length\': 512, \'notnull\': False, \'raw_rname\': \'carId\', \'rname\': \'"carId"\', \'sortable\': 2, \'sql\': \'CHAR(512)\', \'type\': \'string\', \'unique\': False}, \'carLocation\': {\'length\': 512, \'notnull\': False, \'raw_rname\': \'carLocation\', \'rname\': \'"carLocation"\', \'sortable\': 3, \'sql\': \'CHAR(512)\', \'type\': \'string\', \'unique\': False}, \'id\': {\'length\': 512, \'notnull\': False, \'raw_rname\': \'id\', \'rname\': \'"id"\', \'sortable\': 1, \'sql\': \'INTEGER PRIMARY KEY AUTOINCREMENT\', \'type\': \'id\', \'unique\': False}, \'pm10\': {\'length\': 512, \'notnull\': False, \'raw_rname\': \'pm10\', \'rname\': \'"pm10"\', \'sortable\': 6, \'sql\': \'DOUBLE\', \'type\': \'double\', \'unique\': False}, \'pm25\': {\'length\': 512, \'notnull\': False, \'raw_rname\': \'pm25\', \'rname\': \'"pm25"\', \'sortable\': 5, \'sql\': \'DOUBLE\', \'type\': \'double\', \'unique\': False}, \'timeValue\': {\'length\': 512, \'notnull\': False, \'raw_rname\': \'timeValue\', \'rname\': \'"timeValue"\', \'sortable\': 4, \'sql\': \'TIMESTAMP\', \'type\': \'datetime\', \'unique\': False}}'
p245
sS'field_name'
p246
S"'tags'"
p247
sS'types'
p248
S"{'big-id': 'INTEGER PRIMARY KEY AUTOINCREMENT', 'big-reference': 'INTEGER REFERENCES %(foreign_key)s ON DELETE %(on_delete_action)s %(null)s %(unique)s', 'bigint': 'INTEGER', 'blob': 'BLOB', 'boolean': 'CHAR(1)', 'date': 'DATE', 'datetime': 'TIMESTAMP', 'decimal': 'DOUBLE', 'double': 'DOUBLE', 'float': 'DOUBLE', ...}"
p249
sssS'traceback'
p250
S'Traceback (most recent call last):\n  File "/var/www/web2py/gluon/restricted.py", line 219, in restricted\n    exec(ccode, environment)\n  File "/var/www/web2py/applications/datalake/models/sensor1.py", line 9, in <module>\n    Field(\'tags\', \'string:list\', default=\'janela aberta\')\n  File "/var/www/web2py/gluon/packages/dal/pydal/base.py", line 590, in define_table\n    table = self.lazy_define_table(tablename, *fields, **kwargs)\n  File "/var/www/web2py/gluon/packages/dal/pydal/base.py", line 624, in lazy_define_table\n    polymodel=polymodel)\n  File "/var/www/web2py/gluon/packages/dal/pydal/adapters/base.py", line 798, in create_table\n    return self.migrator.create_table(*args, **kwargs)\n  File "/var/www/web2py/gluon/packages/dal/pydal/migrator.py", line 168, in create_table\n    field_type, field_name))\nSyntaxError: Field: unknown field type: string:list for tags\n'
p251
s.